Certificate:
    Data:
        Version: 3 (0x2)
        Serial Number:
            48:45:cc:8a:88:0a:56:6c:35:e0:b8:f7:e9:3d:c0:ed:50:71:41:f9
        Signature Algorithm: sha256WithRSAEncryption
        Issuer: C=BR, ST=StateName, O=Registro Civil do Brasil, OU=Operador Nacional do Registro Civil, CN=AC Issuer SDDup
        Validity
            Not Before: May 14 23:51:07 2025 GMT
            Not After : Jan 21 23:51:07 2039 GMT
        Subject: C=BR, ST=StateName, O=Registro Civil do Brasil, OU=Operador Nacional do Registro Civil, CN=Registro Civil SDDup
        Subject Public Key Info:
            Public Key Algorithm: rsaEncryption
                RSA Public-Key: (2048 bit)
                Modulus:
                    00:e8:fd:a7:54:52:8b:94:9a:bb:d0:1a:24:b0:03:
                    6a:8b:60:85:f2:69:c1:1c:5f:33:93:40:7e:5e:62:
                    5d:d4:8d:e2:a9:a9:80:8a:a2:30:06:5b:01:ca:ae:
                    2a:e8:3b:11:50:ee:09:2d:2c:57:8a:73:19:13:0c:
                    43:9b:27:f3:ca:57:5e:04:6b:35:69:6f:bd:04:b9:
                    19:56:d6:af:df:49:09:24:d0:1b:e7:ae:7c:8d:f0:
                    36:e1:fb:1e:49:5a:26:2c:5d:7f:51:5a:ae:a0:11:
                    11:dc:5f:b7:d2:71:f4:83:14:5e:cb:fe:56:ca:a4:
                    4c:31:f1:cd:44:df:cf:7a:01:e6:82:f7:a4:ec:05:
                    c9:58:bc:4b:d9:3e:c9:55:14:c9:77:a8:96:f1:d3:
                    43:79:12:e2:fe:ae:05:d6:d2:65:7f:12:24:d8:18:
                    44:08:40:73:29:5d:90:2a:77:2f:cd:a2:c4:e4:4e:
                    b8:c3:f1:50:ed:df:cc:bc:06:05:01:fa:e2:62:77:
                    d6:4c:b4:11:b7:44:08:ec:9b:94:3e:f0:78:0e:2f:
                    b4:4b:29:4b:70:d2:46:b3:8d:6c:45:b0:67:40:8f:
                    35:a3:ad:fd:5e:64:8c:d7:03:e2:23:63:ff:42:55:
                    9e:f9:87:72:62:5d:02:ef:d1:19:1b:93:f4:d9:33:
                    57:6f
                Exponent: 65537 (0x10001)
        X509v3 extensions:
            X509v3 Basic Constraints: 
                CA:FALSE
            Netscape Comment: 
                OpenSSL Generated Certificate
            X509v3 Subject Key Identifier: 
                5F:06:17:B2:45:22:B1:83:7D:0B:0E:D9:61:B9:0C:F4:A8:54:B2:9B
            X509v3 Authority Key Identifier: 
                keyid:23:72:1F:19:EC:75:7E:40:39:5F:11:F1:FF:CC:35:DB:2C:18:A6:6F

    Signature Algorithm: sha256WithRSAEncryption
         b9:87:65:b7:8b:be:c3:d4:da:a6:db:5a:b6:cf:2e:af:be:11:
         03:d2:bd:53:50:15:67:32:97:73:39:fd:e2:f3:a3:c9:83:ee:
         21:86:07:a7:2b:29:70:27:45:80:9d:01:62:4c:e1:98:96:92:
         f5:f4:09:87:95:83:cb:fb:51:fa:20:6d:fe:b0:33:5d:ef:b2:
         04:75:94:4e:b1:fa:6b:13:03:ed:73:73:e0:32:d3:63:9b:27:
         eb:ec:ef:2f:e6:9e:1a:f8:68:92:19:e3:01:67:fc:50:cb:40:
         0b:ec:44:ab:9f:bf:5c:e0:76:65:a7:58:e7:02:e0:66:0a:35:
         6a:91:b8:92:e2:93:e7:e1:02:52:34:a2:c0:9f:e0:00:bb:a7:
         48:76:a6:20:1a:dc:e0:d0:db:2a:56:b7:e6:e2:f1:42:d4:d4:
         70:a4:4f:fc:01:30:c4:7f:ca:38:0e:51:66:85:75:ac:0f:ce:
         ea:03:05:cc:8c:8f:1b:73:73:e4:c4:a4:92:11:14:a6:1d:d9:
         d0:e6:1b:fc:c4:30:94:8b:0f:ce:94:eb:30:37:47:fc:b6:cf:
         4c:c3:8b:56:69:ed:bc:4e:37:8e:53:5e:42:48:55:02:c8:c7:
         56:78:d0:92:6f:3a:f6:3d:2a:11:b1:58:54:8b:7c:7b:f0:ca:
         00:cf:98:0b
-----BEGIN CERTIFICATE-----
MIIEKDCCAxCgAwIBAgIUSEXMiogKVmw14Lj36T3A7VBxQfkwDQYJKoZIhvcNAQEL
BQAwgYwxCzAJBgNVBAYTAkJSMRIwEAYDVQQIDAlTdGF0ZU5hbWUxITAfBgNVBAoM
GFJlZ2lzdHJvIENpdmlsIGRvIEJyYXNpbDEsMCoGA1UECwwjT3BlcmFkb3IgTmFj
aW9uYWwgZG8gUmVnaXN0cm8gQ2l2aWwxGDAWBgNVBAMMD0FDIElzc3VlciBTRER1
cDAeFw0yNTA1MTQyMzUxMDdaFw0zOTAxMjEyMzUxMDdaMIGRMQswCQYDVQQGEwJC
UjESMBAGA1UECAwJU3RhdGVOYW1lMSEwHwYDVQQKDBhSZWdpc3RybyBDaXZpbCBk
byBCcmFzaWwxLDAqBgNVBAsMI09wZXJhZG9yIE5hY2lvbmFsIGRvIFJlZ2lzdHJv
IENpdmlsMR0wGwYDVQQDDBRSZWdpc3RybyBDaXZpbCBTRER1cDCCASIwDQYJKoZI
hvcNAQEBBQADggEPADCCAQoCggEBAOj9p1RSi5Sau9AaJLADaotghfJpwRxfM5NA
fl5iXdSN4qmpgIqiMAZbAcquKug7EVDuCS0sV4pzGRMMQ5sn88pXXgRrNWlvvQS5
GVbWr99JCSTQG+eufI3wNuH7HklaJixdf1FarqAREdxft9Jx9IMUXsv+VsqkTDHx
zUTfz3oB5oL3pOwFyVi8S9k+yVUUyXeolvHTQ3kS4v6uBdbSZX8SJNgYRAhAcyld
kCp3L82ixOROuMPxUO3fzLwGBQH64mJ31ky0EbdECOyblD7weA4vtEspS3DSRrON
bEWwZ0CPNaOt/V5kjNcD4iNj/0JVnvmHcmJdAu/RGRuT9NkzV28CAwEAAaN7MHkw
CQYDVR0TBAIwADAsBglghkgBhvhCAQ0EHxYdT3BlblNTTCBHZW5lcmF0ZWQgQ2Vy
dGlmaWNhdGUwHQYDVR0OBBYEFF8GF7JFIrGDfQsO2WG5DPSoVLKbMB8GA1UdIwQY
MBaAFCNyHxnsdX5AOV8R8f/MNdssGKZvMA0GCSqGSIb3DQEBCwUAA4IBAQC5h2W3
i77D1Nqm21q2zy6vvhED0r1TUBVnMpdzOf3i86PJg+4hhgenKylwJ0WAnQFiTOGY
lpL19AmHlYPL+1H6IG3+sDNd77IEdZROsfprEwPtc3PgMtNjmyfr7O8v5p4a+GiS
GeMBZ/xQy0AL7ESrn79c4HZlp1jnAuBmCjVqkbiS4pPn4QJSNKLAn+AAu6dIdqYg
Gtzg0NsqVrfm4vFC1NRwpE/8ATDEf8o4DlFmhXWsD87qAwXMjI8bc3PkxKSSERSm
HdnQ5hv8xDCUiw/OlOswN0f8ts9Mw4tWae28TjeOU15CSFUCyMdWeNCSbzr2PSoR
sVhUi3x78MoAz5gL
-----END CERTIFICATE-----
